target datalayout = "e-m:e-p270:32:32-p271:32:32-p272:64:64-i64:64-i128:128-f80:128-n8:16:32:64-S128"
target triple = "x86_64-pc-linux-gnu"

%struct.tls_buffer_st = type { ptr, i64, i64, i64, i64, i32, i32 }
%struct.tls_rl_record_st = type { i32, i32, i64, i64, i64, ptr, ptr, ptr, i16, [8 x i8] }
%struct.ossl_record_layer_st = type { ptr, ptr, i32, i32, i32, i32, i32, ptr, i16, ptr, ptr, ptr, i64, i32, [33 x %struct.tls_buffer_st], i64, i64, %struct.tls_buffer_st, [32 x %struct.tls_rl_record_st], i64, i64, i64, i32, ptr, i64, [8 x i8], i32, i32, i64, i32, ptr, ptr, i64, ptr, ptr, i32, i32, i32, i64, i64, i64, [64 x i8], i32, i32, i32, ptr, ptr, i32, i32, i64, ptr, ptr, %struct.dtls_bitmap_st, %struct.dtls_bitmap_st, i32, ptr, ptr, ptr, ptr, ptr, i64, ptr }
%struct.dtls_bitmap_st = type { i64, [8 x i8] }

@.str = private unnamed_addr constant [43 x i8] c"../openssl/ssl/record/methods/tls_common.c\00", align 1

; Function Attrs: nounwind uwtable
define internal void @tls_release_write_buffer_int(ptr noundef %0, i64 noundef %1) #0 {
  %3 = alloca ptr, align 8
  %4 = alloca i64, align 8
  %5 = alloca ptr, align 8
  %6 = alloca i64, align 8
  store ptr %0, ptr %3, align 8, !tbaa !16
  store i64 %1, ptr %4, align 8, !tbaa !38
  call void @llvm.lifetime.start.p0(i64 8, ptr %5) #10
  call void @llvm.lifetime.start.p0(i64 8, ptr %6) #10
  %7 = load ptr, ptr %3, align 8, !tbaa !16
  %8 = getelementptr inbounds nuw %struct.ossl_record_layer_st, ptr %7, i32 0, i32 16
  %9 = load i64, ptr %8, align 8, !tbaa !49
  store i64 %9, ptr %6, align 8, !tbaa !38
  br label %10

10:                                               ; preds = %31, %2
  %11 = load i64, ptr %6, align 8, !tbaa !38
  %12 = load i64, ptr %4, align 8, !tbaa !38
  %13 = icmp ugt i64 %11, %12
  br i1 %13, label %14, label %36

14:                                               ; preds = %10
  %15 = load ptr, ptr %3, align 8, !tbaa !16
  %16 = getelementptr inbounds nuw %struct.ossl_record_layer_st, ptr %15, i32 0, i32 14
  %17 = load i64, ptr %6, align 8, !tbaa !38
  %18 = sub i64 %17, 1
  %19 = getelementptr inbounds nuw [33 x %struct.tls_buffer_st], ptr %16, i64 0, i64 %18
  store ptr %19, ptr %5, align 8, !tbaa !3
  %20 = load ptr, ptr %5, align 8, !tbaa !3
  %21 = getelementptr inbounds nuw %struct.tls_buffer_st, ptr %20, i32 0, i32 5
  %22 = load i32, ptr %21, align 8, !tbaa !54
  %23 = icmp ne i32 %22, 0
  br i1 %23, label %24, label %27

24:                                               ; preds = %14
  %25 = load ptr, ptr %5, align 8, !tbaa !3
  %26 = getelementptr inbounds nuw %struct.tls_buffer_st, ptr %25, i32 0, i32 5
  store i32 0, ptr %26, align 8, !tbaa !54
  br label %31

27:                                               ; preds = %14
  %28 = load ptr, ptr %5, align 8, !tbaa !3
  %29 = getelementptr inbounds nuw %struct.tls_buffer_st, ptr %28, i32 0, i32 0
  %30 = load ptr, ptr %29, align 8, !tbaa !8
  call void @CRYPTO_free(ptr noundef %30, ptr noundef @.str, i32 noundef 136)
  br label %31

31:                                               ; preds = %27, %24
  %32 = load ptr, ptr %5, align 8, !tbaa !3
  %33 = getelementptr inbounds nuw %struct.tls_buffer_st, ptr %32, i32 0, i32 0
  store ptr null, ptr %33, align 8, !tbaa !8
  %34 = load i64, ptr %6, align 8, !tbaa !38
  %35 = add i64 %34, -1
  store i64 %35, ptr %6, align 8, !tbaa !38
  br label %10, !llvm.loop !55

36:                                               ; preds = %10
  call void @llvm.lifetime.end.p0(i64 8, ptr %6) #10
  call void @llvm.lifetime.end.p0(i64 8, ptr %5) #10
  ret void
}

; Function Attrs: nounwind uwtable
define internal void @TLS_RL_RECORD_release(ptr noundef %0, i64 noundef %1) #0 {
  %3 = alloca ptr, align 8
  %4 = alloca i64, align 8
  %5 = alloca i64, align 8
  store ptr %0, ptr %3, align 8, !tbaa !13
  store i64 %1, ptr %4, align 8, !tbaa !38
  call void @llvm.lifetime.start.p0(i64 8, ptr %5) #10
  store i64 0, ptr %5, align 8, !tbaa !38
  br label %6

6:                                                ; preds = %20, %2
  %7 = load i64, ptr %5, align 8, !tbaa !38
  %8 = load i64, ptr %4, align 8, !tbaa !38
  %9 = icmp ult i64 %7, %8
  br i1 %9, label %10, label %23

10:                                               ; preds = %6
  %11 = load ptr, ptr %3, align 8, !tbaa !13
  %12 = load i64, ptr %5, align 8, !tbaa !38
  %13 = getelementptr inbounds nuw %struct.tls_rl_record_st, ptr %11, i64 %12
  %14 = getelementptr inbounds nuw %struct.tls_rl_record_st, ptr %13, i32 0, i32 7
  %15 = load ptr, ptr %14, align 8, !tbaa !118
  call void @CRYPTO_free(ptr noundef %15, ptr noundef @.str, i32 noundef 37)
  %16 = load ptr, ptr %3, align 8, !tbaa !13
  %17 = load i64, ptr %5, align 8, !tbaa !38
  %18 = getelementptr inbounds nuw %struct.tls_rl_record_st, ptr %16, i64 %17
  %19 = getelementptr inbounds nuw %struct.tls_rl_record_st, ptr %18, i32 0, i32 7
  store ptr null, ptr %19, align 8, !tbaa !118
  br label %20

20:                                               ; preds = %10
  %21 = load i64, ptr %5, align 8, !tbaa !38
  %22 = add i64 %21, 1
  store i64 %22, ptr %5, align 8, !tbaa !38
  br label %6, !llvm.loop !185

23:                                               ; preds = %6
  call void @llvm.lifetime.end.p0(i64 8, ptr %5) #10
  ret void
}

; Function Attrs: nounwind uwtable
define internal void @tls_release_write_buffer(ptr noundef %0) #0 {
  %2 = alloca ptr, align 8
  store ptr %0, ptr %2, align 8, !tbaa !16
  %3 = load ptr, ptr %2, align 8, !tbaa !16
  call void @tls_release_write_buffer_int(ptr noundef %3, i64 noundef 0)
  %4 = load ptr, ptr %2, align 8, !tbaa !16
  %5 = getelementptr inbounds nuw %struct.ossl_record_layer_st, ptr %4, i32 0, i32 16
  store i64 0, ptr %5, align 8, !tbaa !49
  ret void
}

; Function Attrs: nounwind uwtable
define void @ossl_tls_buffer_release(ptr noundef %0) #0 {
  %2 = alloca ptr, align 8
  store ptr %0, ptr %2, align 8, !tbaa !3
  %3 = load ptr, ptr %2, align 8, !tbaa !3
  %4 = getelementptr inbounds nuw %struct.tls_buffer_st, ptr %3, i32 0, i32 0
  %5 = load ptr, ptr %4, align 8, !tbaa !8
  call void @CRYPTO_free(ptr noundef %5, ptr noundef @.str, i32 noundef 28)
  %6 = load ptr, ptr %2, align 8, !tbaa !3
  %7 = getelementptr inbounds nuw %struct.tls_buffer_st, ptr %6, i32 0, i32 0
  store ptr null, ptr %7, align 8, !tbaa !8
  ret void
}

; Function Attrs: nounwind uwtable
define internal void @tls_int_free(ptr noundef %0) #0 {
  %2 = alloca ptr, align 8
  store ptr %0, ptr %2, align 8, !tbaa !16
  %3 = load ptr, ptr %2, align 8, !tbaa !16
  %4 = getelementptr inbounds nuw %struct.ossl_record_layer_st, ptr %3, i32 0, i32 9
  %5 = load ptr, ptr %4, align 8, !tbaa !65
  %6 = call i32 @BIO_free(ptr noundef %5)
  %7 = load ptr, ptr %2, align 8, !tbaa !16
  %8 = getelementptr inbounds nuw %struct.ossl_record_layer_st, ptr %7, i32 0, i32 10
  %9 = load ptr, ptr %8, align 8, !tbaa !66
  %10 = call i32 @BIO_free(ptr noundef %9)
  %11 = load ptr, ptr %2, align 8, !tbaa !16
  %12 = getelementptr inbounds nuw %struct.ossl_record_layer_st, ptr %11, i32 0, i32 11
  %13 = load ptr, ptr %12, align 8, !tbaa !143
  %14 = call i32 @BIO_free(ptr noundef %13)
  %15 = load ptr, ptr %2, align 8, !tbaa !16
  %16 = getelementptr inbounds nuw %struct.ossl_record_layer_st, ptr %15, i32 0, i32 17
  call void @ossl_tls_buffer_release(ptr noundef %16)
  %17 = load ptr, ptr %2, align 8, !tbaa !16
  call void @tls_release_write_buffer(ptr noundef %17)
  %18 = load ptr, ptr %2, align 8, !tbaa !16
  %19 = getelementptr inbounds nuw %struct.ossl_record_layer_st, ptr %18, i32 0, i32 30
  %20 = load ptr, ptr %19, align 8, !tbaa !88
  call void @EVP_CIPHER_CTX_free(ptr noundef %20)
  %21 = load ptr, ptr %2, align 8, !tbaa !16
  %22 = getelementptr inbounds nuw %struct.ossl_record_layer_st, ptr %21, i32 0, i32 31
  %23 = load ptr, ptr %22, align 8, !tbaa !150
  call void @EVP_MAC_CTX_free(ptr noundef %23)
  %24 = load ptr, ptr %2, align 8, !tbaa !16
  %25 = getelementptr inbounds nuw %struct.ossl_record_layer_st, ptr %24, i32 0, i32 33
  %26 = load ptr, ptr %25, align 8, !tbaa !96
  call void @EVP_MD_CTX_free(ptr noundef %26)
  %27 = load ptr, ptr %2, align 8, !tbaa !16
  %28 = getelementptr inbounds nuw %struct.ossl_record_layer_st, ptr %27, i32 0, i32 34
  %29 = load ptr, ptr %28, align 8, !tbaa !117
  call void @COMP_CTX_free(ptr noundef %29)
  %30 = load ptr, ptr %2, align 8, !tbaa !16
  %31 = getelementptr inbounds nuw %struct.ossl_record_layer_st, ptr %30, i32 0, i32 45
  %32 = load ptr, ptr %31, align 8, !tbaa !151
  call void @CRYPTO_free(ptr noundef %32, ptr noundef @.str, i32 noundef 1459)
  %33 = load ptr, ptr %2, align 8, !tbaa !16
  %34 = getelementptr inbounds nuw %struct.ossl_record_layer_st, ptr %33, i32 0, i32 46
  %35 = load ptr, ptr %34, align 8, !tbaa !152
  call void @CRYPTO_free(ptr noundef %35, ptr noundef @.str, i32 noundef 1460)
  %36 = load ptr, ptr %2, align 8, !tbaa !16
  %37 = getelementptr inbounds nuw %struct.ossl_record_layer_st, ptr %36, i32 0, i32 3
  %38 = load i32, ptr %37, align 4, !tbaa !44
  %39 = icmp eq i32 %38, 768
  br i1 %39, label %40, label %44

40:                                               ; preds = %1
  %41 = load ptr, ptr %2, align 8, !tbaa !16
  %42 = getelementptr inbounds nuw %struct.ossl_record_layer_st, ptr %41, i32 0, i32 41
  %43 = getelementptr inbounds [64 x i8], ptr %42, i64 0, i64 0
  call void @OPENSSL_cleanse(ptr noundef %43, i64 noundef 64)
  br label %44

44:                                               ; preds = %40, %1
  %45 = load ptr, ptr %2, align 8, !tbaa !16
  %46 = getelementptr inbounds nuw %struct.ossl_record_layer_st, ptr %45, i32 0, i32 18
  %47 = getelementptr inbounds [32 x %struct.tls_rl_record_st], ptr %46, i64 0, i64 0
  call void @TLS_RL_RECORD_release(ptr noundef %47, i64 noundef 32)
  %48 = load ptr, ptr %2, align 8, !tbaa !16
  call void @CRYPTO_free(ptr noundef %48, ptr noundef @.str, i32 noundef 1466)
  ret void
}