; Function Attrs: nounwind uwtable
define internal fastcc void @tls_int_free(ptr noundef %0) unnamed_addr #0 {
  %2 = getelementptr inbounds nuw i8, ptr %0, i64 56
  %3 = load ptr, ptr %2, align 8, !tbaa !51
  %4 = tail call i32 @BIO_free(ptr noundef %3) #13
  %5 = getelementptr inbounds nuw i8, ptr %0, i64 64
  %6 = load ptr, ptr %5, align 8, !tbaa !52
  %7 = tail call i32 @BIO_free(ptr noundef %6) #13
  %8 = getelementptr inbounds nuw i8, ptr %0, i64 72
  %9 = load ptr, ptr %8, align 8, !tbaa !113
  %10 = tail call i32 @BIO_free(ptr noundef %9) #13
  %11 = getelementptr inbounds nuw i8, ptr %0, i64 1696
  %12 = load ptr, ptr %11, align 8, !tbaa !3
  tail call void @CRYPTO_free(ptr noundef %12, ptr noundef nonnull @.str, i32 noundef 28) #13
  store ptr null, ptr %11, align 8, !tbaa !3
  %13 = getelementptr inbounds nuw i8, ptr %0, i64 1688
  %14 = load i64, ptr %13, align 8, !tbaa !38
  %.not.i = icmp eq i64 %14, 0
  br i1 %.not.i, label %tls_release_write_buffer.exit, label %.lr.ph.i.i

.lr.ph.i.i:                                       ; preds = %1
  %15 = getelementptr inbounds nuw i8, ptr %0, i64 96
  br label %16

16:                                               ; preds = %24, %.lr.ph.i.i
  %.09.i.i = phi i64 [ %14, %.lr.ph.i.i ], [ %17, %24 ]
  %17 = add i64 %.09.i.i, -1
  %18 = getelementptr inbounds nuw [33 x %struct.tls_buffer_st], ptr %15, i64 0, i64 %17
  %19 = getelementptr inbounds nuw i8, ptr %18, i64 40
  %20 = load i32, ptr %19, align 8, !tbaa !41
  %.not.i.i = icmp eq i32 %20, 0
  br i1 %.not.i.i, label %22, label %21

21:                                               ; preds = %16
  store i32 0, ptr %19, align 8, !tbaa !41
  br label %24

22:                                               ; preds = %16
  %23 = load ptr, ptr %18, align 8, !tbaa !3
  tail call void @CRYPTO_free(ptr noundef %23, ptr noundef nonnull @.str, i32 noundef 136) #13
  br label %24

24:                                               ; preds = %22, %21
  store ptr null, ptr %18, align 8, !tbaa !3
  %.not2.i = icmp eq i64 %17, 0
  br i1 %.not2.i, label %tls_release_write_buffer.exit, label %16, !llvm.loop !42

tls_release_write_buffer.exit:                    ; preds = %24, %1
  store i64 0, ptr %13, align 8, !tbaa !38
  %25 = getelementptr inbounds nuw i8, ptr %0, i64 4128
  %26 = load ptr, ptr %25, align 8, !tbaa !71
  tail call void @EVP_CIPHER_CTX_free(ptr noundef %26) #13
  %27 = getelementptr inbounds nuw i8, ptr %0, i64 4136
  %28 = load ptr, ptr %27, align 8, !tbaa !120
  tail call void @EVP_MAC_CTX_free(ptr noundef %28) #13
  %29 = getelementptr inbounds nuw i8, ptr %0, i64 4152
  %30 = load ptr, ptr %29, align 8, !tbaa !75
  tail call void @EVP_MD_CTX_free(ptr noundef %30) #13
  %31 = getelementptr inbounds nuw i8, ptr %0, i64 4160
  %32 = load ptr, ptr %31, align 8, !tbaa !93
  tail call void @COMP_CTX_free(ptr noundef %32) #13
  %33 = getelementptr inbounds nuw i8, ptr %0, i64 4288
  %34 = load ptr, ptr %33, align 8, !tbaa !121
  tail call void @CRYPTO_free(ptr noundef %34, ptr noundef nonnull @.str, i32 noundef 1459) #13
  %35 = getelementptr inbounds nuw i8, ptr %0, i64 4296
  %36 = load ptr, ptr %35, align 8, !tbaa !122
  tail call void @CRYPTO_free(ptr noundef %36, ptr noundef nonnull @.str, i32 noundef 1460) #13
  %37 = getelementptr inbounds nuw i8, ptr %0, i64 20
  %38 = load i32, ptr %37, align 4, !tbaa !31
  %39 = icmp eq i32 %38, 768
  br i1 %39, label %40, label %42

40:                                               ; preds = %tls_release_write_buffer.exit
  %41 = getelementptr inbounds nuw i8, ptr %0, i64 4208
  tail call void @OPENSSL_cleanse(ptr noundef nonnull %41, i64 noundef 64) #13
  br label %42

42:                                               ; preds = %40, %tls_release_write_buffer.exit
  %43 = getelementptr i8, ptr %0, i64 1792
  br label %44

44:                                               ; preds = %44, %42
  %.06.i = phi i64 [ 0, %42 ], [ %47, %44 ]
  %.idx = mul nuw nsw i64 %.06.i, 72
  %45 = getelementptr i8, ptr %43, i64 %.idx
  %46 = load ptr, ptr %45, align 8, !tbaa !94
  tail call void @CRYPTO_free(ptr noundef %46, ptr noundef nonnull @.str, i32 noundef 37) #13
  store ptr null, ptr %45, align 8, !tbaa !94
  %47 = add nuw nsw i64 %.06.i, 1
  %exitcond.not.i = icmp eq i64 %47, 32
  br i1 %exitcond.not.i, label %TLS_RL_RECORD_release.exit, label %44, !llvm.loop !123

TLS_RL_RECORD_release.exit:                       ; preds = %44
  tail call void @CRYPTO_free(ptr noundef nonnull %0, ptr noundef nonnull @.str, i32 noundef 1466) #13
  ret void
}